ccopy_reg
_reconstructor
p0
(csklearn.linear_model.base
LinearRegression
p1
c__builtin__
object
p2
Ntp3
Rp4
(dp5
S'normalize'
p6
I00
sS'n_jobs'
p7
I1
sS'rank_'
p8
I4
sS'fit_intercept'
p9
I01
sS'_residues'
p10
cnumpy.core.multiarray
scalar
p11
(cnumpy
dtype
p12
(S'f8'
p13
I0
I1
tp14
Rp15
(I3
S'<'
p16
NNNI-1
I-1
I0
tp17
bS'\xf2%\x1d\x02\xe9\xa3NA'
p18
tp19
Rp20
sS'coef_'
p21
cnumpy.core.multiarray
_reconstruct
p22
(cnumpy
ndarray
p23
(I0
tp24
S'b'
p25
tp26
Rp27
(I1
(L4L
tp28
g15
I00
S']\x9f\x04\xd2>Lp@\x8e\x17I\xb9\xd3\xb1\xf4\xbf\xf3{Z\xa3o\x1f\xb5?\xc3\xc5\x02\x19?\x90\x05\xc0'
p29
tp30
bsS'_sklearn_version'
p31
S'0.20.0'
p32
sS'copy_X'
p33
I01
sS'intercept_'
p34
g11
(g15
S'L!t\x85\x18Az@'
p35
tp36
Rp37
sS'singular_'
p38
g22
(g23
(I0
tp39
g25
tp40
Rp41
(I1
(L4L
tp42
g15
I00
S'\t\xc3\xc9]\xcc\xabQ@\x9b\xa3YTB\xf6M@\x85\xf7G\xb5\xcb\xfe@@\x90\xcb\x85\\\x08a7@'
p43
tp44
bsb.